target datalayout = "e-m:e-p270:32:32-p271:32:32-p272:64:64-i64:64-i128:128-f80:128-n8:16:32:64-S128"
target triple = "x86_64-pc-linux-gnu"

%struct.AVFilterContext = type { ptr, ptr, ptr, ptr, ptr, i32, ptr, ptr, i32, ptr, ptr, i32, i32, ptr, ptr, ptr, ptr, i32, ptr, i32, i32 }
%struct.VIFContext = type { ptr, %struct.FFFrameSync, ptr, i32, i32, i32, float, [13 x ptr], ptr, ptr, ptr, [4 x double], [4 x double], [4 x double], i64 }
%struct.FFFrameSync = type { ptr, ptr, i32, %struct.AVRational, i64, ptr, ptr, i32, i32, i8, i8, ptr, i32, i32, i32, i32 }
%struct.AVRational = type { i32, i32 }

@.str.13 = private unnamed_addr constant [40 x i8] c"VIF scale=%d average:%f min:%f: max:%f\0A\00", align 1

; Function Attrs: cold nounwind optsize uwtable
define internal void @uninit(ptr noundef %0) #1 {
  %2 = alloca ptr, align 8
  %3 = alloca ptr, align 8
  %4 = alloca i32, align 4
  %5 = alloca i32, align 4
  %6 = alloca i32, align 4
  store ptr %0, ptr %2, align 8, !tbaa !4
  call void @llvm.lifetime.start.p0(i64 8, ptr %3) #10
  %7 = load ptr, ptr %2, align 8, !tbaa !4
  %8 = getelementptr inbounds nuw %struct.AVFilterContext, ptr %7, i32 0, i32 9
  %9 = load ptr, ptr %8, align 8, !tbaa !9
  store ptr %9, ptr %3, align 8, !tbaa !22
  %10 = load ptr, ptr %3, align 8, !tbaa !22
  %11 = getelementptr inbounds nuw %struct.VIFContext, ptr %10, i32 0, i32 14
  %12 = load i64, ptr %11, align 8, !tbaa !24
  %13 = icmp ugt i64 %12, 0
  br i1 %13, label %14, label %49

14:                                               ; preds = %1
  call void @llvm.lifetime.start.p0(i64 4, ptr %4) #10
  store i32 0, ptr %4, align 4, !tbaa !34
  br label %15

15:                                               ; preds = %45, %14
  %16 = load i32, ptr %4, align 4, !tbaa !34
  %17 = icmp slt i32 %16, 4
  br i1 %17, label %19, label %18

18:                                               ; preds = %15
  call void @llvm.lifetime.end.p0(i64 4, ptr %4) #10
  br label %48

19:                                               ; preds = %15
  %20 = load ptr, ptr %2, align 8, !tbaa !4
  %21 = load i32, ptr %4, align 4, !tbaa !34
  %22 = load ptr, ptr %3, align 8, !tbaa !22
  %23 = getelementptr inbounds nuw %struct.VIFContext, ptr %22, i32 0, i32 11
  %24 = load i32, ptr %4, align 4, !tbaa !34
  %25 = sext i32 %24 to i64
  %26 = getelementptr inbounds [4 x double], ptr %23, i64 0, i64 %25
  %27 = load double, ptr %26, align 8, !tbaa !35
  %28 = load ptr, ptr %3, align 8, !tbaa !22
  %29 = getelementptr inbounds nuw %struct.VIFContext, ptr %28, i32 0, i32 14
  %30 = load i64, ptr %29, align 8, !tbaa !24
  %31 = uitofp i64 %30 to double
  %32 = fdiv nsz double %27, %31
  %33 = load ptr, ptr %3, align 8, !tbaa !22
  %34 = getelementptr inbounds nuw %struct.VIFContext, ptr %33, i32 0, i32 12
  %35 = load i32, ptr %4, align 4, !tbaa !34
  %36 = sext i32 %35 to i64
  %37 = getelementptr inbounds [4 x double], ptr %34, i64 0, i64 %36
  %38 = load double, ptr %37, align 8, !tbaa !35
  %39 = load ptr, ptr %3, align 8, !tbaa !22
  %40 = getelementptr inbounds nuw %struct.VIFContext, ptr %39, i32 0, i32 13
  %41 = load i32, ptr %4, align 4, !tbaa !34
  %42 = sext i32 %41 to i64
  %43 = getelementptr inbounds [4 x double], ptr %40, i64 0, i64 %42
  %44 = load double, ptr %43, align 8, !tbaa !35
  call void (ptr, i32, ptr, ...) @av_log(ptr noundef %20, i32 noundef 32, ptr noundef @.str.13, i32 noundef %21, double noundef %32, double noundef %38, double noundef %44)
  br label %45

45:                                               ; preds = %19
  %46 = load i32, ptr %4, align 4, !tbaa !34
  %47 = add nsw i32 %46, 1
  store i32 %47, ptr %4, align 4, !tbaa !34
  br label %15, !llvm.loop !37

48:                                               ; preds = %18
  br label %49

49:                                               ; preds = %48, %1
  call void @llvm.lifetime.start.p0(i64 4, ptr %5) #10
  store i32 0, ptr %5, align 4, !tbaa !34
  br label %50

50:                                               ; preds = %60, %49
  %51 = load i32, ptr %5, align 4, !tbaa !34
  %52 = icmp slt i32 %51, 13
  br i1 %52, label %54, label %53

53:                                               ; preds = %50
  call void @llvm.lifetime.end.p0(i64 4, ptr %5) #10
  br label %63

54:                                               ; preds = %50
  %55 = load ptr, ptr %3, align 8, !tbaa !22
  %56 = getelementptr inbounds nuw %struct.VIFContext, ptr %55, i32 0, i32 7
  %57 = load i32, ptr %5, align 4, !tbaa !34
  %58 = sext i32 %57 to i64
  %59 = getelementptr inbounds [13 x ptr], ptr %56, i64 0, i64 %58
  call void @av_freep(ptr noundef %59)
  br label %60

60:                                               ; preds = %54
  %61 = load i32, ptr %5, align 4, !tbaa !34
  %62 = add nsw i32 %61, 1
  store i32 %62, ptr %5, align 4, !tbaa !34
  br label %50, !llvm.loop !39

63:                                               ; preds = %53
  %64 = load ptr, ptr %3, align 8, !tbaa !22
  %65 = getelementptr inbounds nuw %struct.VIFContext, ptr %64, i32 0, i32 9
  call void @av_freep(ptr noundef %65)
  %66 = load ptr, ptr %3, align 8, !tbaa !22
  %67 = getelementptr inbounds nuw %struct.VIFContext, ptr %66, i32 0, i32 10
  call void @av_freep(ptr noundef %67)
  call void @llvm.lifetime.start.p0(i64 4, ptr %6) #10
  store i32 0, ptr %6, align 4, !tbaa !34
  br label %68

68:                                               ; preds = %89, %63
  %69 = load i32, ptr %6, align 4, !tbaa !34
  %70 = load ptr, ptr %3, align 8, !tbaa !22
  %71 = getelementptr inbounds nuw %struct.VIFContext, ptr %70, i32 0, i32 5
  %72 = load i32, ptr %71, align 8, !tbaa !40
  %73 = icmp slt i32 %69, %72
  br i1 %73, label %74, label %79

74:                                               ; preds = %68
  %75 = load ptr, ptr %3, align 8, !tbaa !22
  %76 = getelementptr inbounds nuw %struct.VIFContext, ptr %75, i32 0, i32 8
  %77 = load ptr, ptr %76, align 8, !tbaa !41
  %78 = icmp ne ptr %77, null
  br label %79

79:                                               ; preds = %74, %68
  %80 = phi i1 [ false, %68 ], [ %78, %74 ]
  br i1 %80, label %82, label %81

81:                                               ; preds = %79
  call void @llvm.lifetime.end.p0(i64 4, ptr %6) #10
  br label %92

82:                                               ; preds = %79
  %83 = load ptr, ptr %3, align 8, !tbaa !22
  %84 = getelementptr inbounds nuw %struct.VIFContext, ptr %83, i32 0, i32 8
  %85 = load ptr, ptr %84, align 8, !tbaa !41
  %86 = load i32, ptr %6, align 4, !tbaa !34
  %87 = sext i32 %86 to i64
  %88 = getelementptr inbounds ptr, ptr %85, i64 %87
  call void @av_freep(ptr noundef %88)
  br label %89

89:                                               ; preds = %82
  %90 = load i32, ptr %6, align 4, !tbaa !34
  %91 = add nsw i32 %90, 1
  store i32 %91, ptr %6, align 4, !tbaa !34
  br label %68, !llvm.loop !42

92:                                               ; preds = %81
  %93 = load ptr, ptr %3, align 8, !tbaa !22
  %94 = getelementptr inbounds nuw %struct.VIFContext, ptr %93, i32 0, i32 8
  call void @av_freep(ptr noundef %94)
  %95 = load ptr, ptr %3, align 8, !tbaa !22
  %96 = getelementptr inbounds nuw %struct.VIFContext, ptr %95, i32 0, i32 1
  call void @ff_framesync_uninit(ptr noundef %96)
  call void @llvm.lifetime.end.p0(i64 8, ptr %3) #10
  ret void
}