; Function Attrs: cold nounwind optsize uwtable
define internal void @uninit(ptr noundef %0) #1 {
  %2 = getelementptr inbounds nuw i8, ptr %0, i64 72
  %3 = load ptr, ptr %2, align 8, !tbaa !4
  %4 = getelementptr inbounds nuw i8, ptr %3, i64 352
  %5 = load i64, ptr %4, align 8, !tbaa !20
  %.not = icmp eq i64 %5, 0
  br i1 %.not, label %.loopexit, label %.preheader

.preheader:                                       ; preds = %1
  %6 = getelementptr inbounds nuw i8, ptr %3, i64 256
  %7 = getelementptr inbounds nuw i8, ptr %3, i64 288
  %8 = getelementptr inbounds nuw i8, ptr %3, i64 320
  br label %9

9:                                                ; preds = %.preheader, %9
  %indvars.iv = phi i64 [ 0, %.preheader ], [ %indvars.iv.next, %9 ]
  %10 = getelementptr inbounds nuw [4 x double], ptr %6, i64 0, i64 %indvars.iv
  %11 = load double, ptr %10, align 8, !tbaa !31
  %12 = load i64, ptr %4, align 8, !tbaa !20
  %13 = uitofp i64 %12 to double
  %14 = fdiv nsz double %11, %13
  %15 = getelementptr inbounds nuw [4 x double], ptr %7, i64 0, i64 %indvars.iv
  %16 = load double, ptr %15, align 8, !tbaa !31
  %17 = getelementptr inbounds nuw [4 x double], ptr %8, i64 0, i64 %indvars.iv
  %18 = load double, ptr %17, align 8, !tbaa !31
  %19 = trunc nuw nsw i64 %indvars.iv to i32
  tail call void (ptr, i32, ptr, ...) @av_log(ptr noundef nonnull %0, i32 noundef 32, ptr noundef nonnull @.str.13, i32 noundef %19, double noundef %14, double noundef %16, double noundef %18) #12
  %indvars.iv.next = add nuw nsw i64 %indvars.iv, 1
  %exitcond.not = icmp eq i64 %indvars.iv.next, 4
  br i1 %exitcond.not, label %.loopexit, label %9, !llvm.loop !33

.loopexit:                                        ; preds = %9, %1
  %20 = getelementptr inbounds nuw i8, ptr %3, i64 128
  br label %28

21:                                               ; preds = %28
  %22 = getelementptr inbounds nuw i8, ptr %3, i64 240
  tail call void @av_freep(ptr noundef nonnull %22) #12
  %23 = getelementptr inbounds nuw i8, ptr %3, i64 248
  tail call void @av_freep(ptr noundef nonnull %23) #12
  %24 = getelementptr inbounds nuw i8, ptr %3, i64 232
  %25 = getelementptr inbounds nuw i8, ptr %3, i64 120
  %26 = load i32, ptr %25, align 8, !tbaa !35
  %27 = icmp sgt i32 %26, 0
  br i1 %27, label %.lr.ph, label %.critedge

28:                                               ; preds = %.loopexit, %28
  %indvars.iv35 = phi i64 [ 0, %.loopexit ], [ %indvars.iv.next36, %28 ]
  %29 = getelementptr inbounds nuw [13 x ptr], ptr %20, i64 0, i64 %indvars.iv35
  tail call void @av_freep(ptr noundef nonnull %29) #12
  %indvars.iv.next36 = add nuw nsw i64 %indvars.iv35, 1
  %exitcond38.not = icmp eq i64 %indvars.iv.next36, 13
  br i1 %exitcond38.not, label %21, label %28, !llvm.loop !36

.lr.ph:                                           ; preds = %21, %32
  %indvars.iv39 = phi i64 [ %indvars.iv.next40, %32 ], [ 0, %21 ]
  %30 = load ptr, ptr %24, align 8, !tbaa !37
  %.not29 = icmp eq ptr %30, null
  br i1 %.not29, label %.critedge, label %32

.critedge:                                        ; preds = %.lr.ph, %32, %21
  tail call void @av_freep(ptr noundef nonnull %24) #12
  %31 = getelementptr inbounds nuw i8, ptr %3, i64 8
  tail call void @ff_framesync_uninit(ptr noundef nonnull %31) #12
  ret void

32:                                               ; preds = %.lr.ph
  %33 = getelementptr inbounds nuw ptr, ptr %30, i64 %indvars.iv39
  tail call void @av_freep(ptr noundef nonnull %33) #12
  %indvars.iv.next40 = add nuw nsw i64 %indvars.iv39, 1
  %34 = load i32, ptr %25, align 8, !tbaa !35
  %35 = sext i32 %34 to i64
  %36 = icmp slt i64 %indvars.iv.next40, %35
  br i1 %36, label %.lr.ph, label %.critedge, !llvm.loop !38
}